(lp0
cnumpy.core.multiarray
_reconstruct
p1
(cnumpy
ndarray
p2
(I0
tp3
S'b'
p4
tp5
Rp6
(I1
(I3
tp7
cnumpy
dtype
p8
(S'S1'
p9
I0
I1
tp10
Rp11
(I3
S'|'
p12
NNNI1
I1
I0
tp13
bI00
S'x09'
p14
tp15
bag1
(g2
(I0
tp16
g4
tp17
Rp18
(I1
(I3
tp19
g8
(S'S1'
p20
I0
I1
tp21
Rp22
(I3
S'|'
p23
NNNI1
I1
I0
tp24
bI00
S'x14'
p25
tp26
ba.