cnumpy.core.multiarray
_reconstruct
p0
(cnumpy
ndarray
p1
(I0
tp2
S'b'
p3
tp4
Rp5
(I1
(I14
I2
I3
tp6
cnumpy
dtype
p7
(S'S1'
p8
I0
I1
tp9
Rp10
(I3
S'|'
p11
NNNI1
I1
I0
tp12
bI00
S'x26o65x15o54x09o91x92o80x29o06x54o78x31o12x47o85x15o58x93o20x57o61x70o05x31o19x07o96'
p13
tp14
b.